target datalayout = "e-m:e-p270:32:32-p271:32:32-p272:64:64-i64:64-i128:128-f80:128-n8:16:32:64-S128"
target triple = "x86_64-pc-linux-gnu"

%"class.cv::TLSDataContainer" = type <{ ptr, i32, [4 x i8] }>

@_ZZN2cv7detailsL13getTlsStorageEvE8instance = internal global ptr null, align 8
@_ZGVZN2cv7detailsL13getTlsStorageEvE8instance = internal global i64 0, align 8

; Function Attrs: mustprogress uwtable
define internal noundef nonnull align 8 dereferenceable(96) ptr @_ZN2cv7detailsL13getTlsStorageEv() #4 personality ptr @__gxx_personality_v0 {
  %1 = alloca ptr, align 8
  %2 = alloca i32, align 4
  %3 = load atomic i8, ptr @_ZGVZN2cv7detailsL13getTlsStorageEvE8instance acquire, align 8
  %4 = icmp eq i8 %3, 0
  br i1 %4, label %5, label %13, !prof !72

5:                                                ; preds = %0
  %6 = call i32 @__cxa_guard_acquire(ptr @_ZGVZN2cv7detailsL13getTlsStorageEvE8instance) #3
  %7 = icmp ne i32 %6, 0
  br i1 %7, label %8, label %13

8:                                                ; preds = %5
  %9 = invoke noalias noundef nonnull ptr @_Znwm(i64 noundef 96) #28
          to label %10 unwind label %15

10:                                               ; preds = %8
  invoke void @_ZN2cv7details10TlsStorageC2Ev(ptr noundef nonnull align 8 dereferenceable(96) %9)
          to label %11 unwind label %19

11:                                               ; preds = %10
  store ptr %9, ptr @_ZZN2cv7detailsL13getTlsStorageEvE8instance, align 8, !tbaa !103
  %12 = call ptr @llvm.invariant.start.p0(i64 8, ptr @_ZZN2cv7detailsL13getTlsStorageEvE8instance)
  call void @__cxa_guard_release(ptr @_ZGVZN2cv7detailsL13getTlsStorageEvE8instance) #3
  br label %13

13:                                               ; preds = %11, %5, %0
  %14 = load ptr, ptr @_ZZN2cv7detailsL13getTlsStorageEvE8instance, align 8, !tbaa !103
  ret ptr %14

15:                                               ; preds = %8
  %16 = landingpad { ptr, i32 }
          cleanup
  %17 = extractvalue { ptr, i32 } %16, 0
  store ptr %17, ptr %1, align 8
  %18 = extractvalue { ptr, i32 } %16, 1
  store i32 %18, ptr %2, align 4
  br label %23

19:                                               ; preds = %10
  %20 = landingpad { ptr, i32 }
          cleanup
  %21 = extractvalue { ptr, i32 } %20, 0
  store ptr %21, ptr %1, align 8
  %22 = extractvalue { ptr, i32 } %20, 1
  store i32 %22, ptr %2, align 4
  call void @_ZdlPv(ptr noundef %9) #31
  br label %23

23:                                               ; preds = %19, %15
  call void @__cxa_guard_abort(ptr @_ZGVZN2cv7detailsL13getTlsStorageEvE8instance) #3
  br label %24

24:                                               ; preds = %23
  %25 = load ptr, ptr %1, align 8
  %26 = load i32, ptr %2, align 4
  %27 = insertvalue { ptr, i32 } poison, ptr %25, 0
  %28 = insertvalue { ptr, i32 } %27, i32 %26, 1
  resume { ptr, i32 } %28
}

; Function Attrs: mustprogress uwtable
define void @_ZNK2cv16TLSDataContainer10gatherDataERSt6vectorIPvSaIS2_EE(ptr noundef nonnull align 8 dereferenceable(12) %0, ptr noundef nonnull align 8 dereferenceable(24) %1) #4 align 2 {
  %3 = alloca ptr, align 8
  %4 = alloca ptr, align 8
  store ptr %0, ptr %3, align 8, !tbaa !112
  store ptr %1, ptr %4, align 8, !tbaa !107
  %5 = load ptr, ptr %3, align 8
  %6 = call noundef nonnull align 8 dereferenceable(96) ptr @_ZN2cv7detailsL13getTlsStorageEv()
  %7 = getelementptr inbounds nuw %"class.cv::TLSDataContainer", ptr %5, i32 0, i32 1
  %8 = load i32, ptr %7, align 8, !tbaa !115
  %9 = sext i32 %8 to i64
  %10 = load ptr, ptr %4, align 8, !tbaa !107
  call void @_ZN2cv7details10TlsStorage6gatherEmRSt6vectorIPvSaIS3_EE(ptr noundef nonnull align 8 dereferenceable(96) %6, i64 noundef %9, ptr noundef nonnull align 8 dereferenceable(24) %10)
  ret void
}