; Function Attrs: mustprogress uwtable
define void @_ZNK2cv16TLSDataContainer10gatherDataERSt6vectorIPvSaIS2_EE(ptr noundef nonnull readonly align 8 captures(none) dereferenceable(12) %0, ptr noundef nonnull align 8 dereferenceable(24) %1) local_unnamed_addr #3 align 2 personality ptr @__gxx_personality_v0 {
  %3 = load atomic i8, ptr @_ZGVZN2cv7detailsL13getTlsStorageEvE8instance acquire, align 8
  %4 = icmp eq i8 %3, 0
  br i1 %4, label %5, label %_ZN2cv7detailsL13getTlsStorageEv.exit, !prof !95

5:                                                ; preds = %2
  %6 = tail call i32 @__cxa_guard_acquire(ptr nonnull @_ZGVZN2cv7detailsL13getTlsStorageEvE8instance) #34
  %.not.i = icmp eq i32 %6, 0
  br i1 %.not.i, label %_ZN2cv7detailsL13getTlsStorageEv.exit, label %7

7:                                                ; preds = %5
  %8 = invoke noalias noundef nonnull dereferenceable(96) ptr @_Znwm(i64 noundef 96) #49
          to label %9 unwind label %12

9:                                                ; preds = %7
  invoke void @_ZN2cv7details10TlsStorageC2Ev(ptr noundef nonnull align 8 dereferenceable(96) %8)
          to label %10 unwind label %14

10:                                               ; preds = %9
  store ptr %8, ptr @_ZZN2cv7detailsL13getTlsStorageEvE8instance, align 8, !tbaa !120
  %11 = tail call ptr @llvm.invariant.start.p0(i64 8, ptr nonnull @_ZZN2cv7detailsL13getTlsStorageEvE8instance)
  tail call void @__cxa_guard_release(ptr nonnull @_ZGVZN2cv7detailsL13getTlsStorageEvE8instance) #34
  br label %_ZN2cv7detailsL13getTlsStorageEv.exit

12:                                               ; preds = %7
  %13 = landingpad { ptr, i32 }
          cleanup
  br label %16

14:                                               ; preds = %9
  %15 = landingpad { ptr, i32 }
          cleanup
  tail call void @_ZdlPv(ptr noundef nonnull %8) #51
  br label %16

16:                                               ; preds = %14, %12
  %.pn.i = phi { ptr, i32 } [ %15, %14 ], [ %13, %12 ]
  tail call void @__cxa_guard_abort(ptr nonnull @_ZGVZN2cv7detailsL13getTlsStorageEvE8instance) #34
  resume { ptr, i32 } %.pn.i

_ZN2cv7detailsL13getTlsStorageEv.exit:            ; preds = %2, %5, %10
  %17 = load ptr, ptr @_ZZN2cv7detailsL13getTlsStorageEvE8instance, align 8, !tbaa !120
  %18 = getelementptr inbounds nuw i8, ptr %0, i64 8
  %19 = load i32, ptr %18, align 8, !tbaa !143
  %20 = sext i32 %19 to i64
  tail call void @_ZN2cv7details10TlsStorage6gatherEmRSt6vectorIPvSaIS3_EE(ptr noundef nonnull align 8 dereferenceable(96) %17, i64 noundef %20, ptr noundef nonnull align 8 dereferenceable(24) %1)
  ret void
}